target datalayout = "e-m:e-p270:32:32-p271:32:32-p272:64:64-i64:64-i128:128-f80:128-n8:16:32:64-S128"
target triple = "x86_64-pc-linux-gnu"

@hf_bssgp_num_pfc = internal global i32 0, align 4
@.str.2 = private unnamed_addr constant [9 x i8] c"Reserved\00", align 1
@.str.3 = private unnamed_addr constant [9 x i8] c"PFC (%u)\00", align 1
@hf_bssgp_r_pfc = internal global i32 0, align 4
@hf_bssgp_bmax_pfc = internal global i32 0, align 4
@hf_bssgp_b_pfc = internal global i32 0, align 4
@ett_bssgp_pfc_flow_control_parameters_pfc = internal global i32 0, align 4

; Function Attrs: null_pointer_is_valid sspstrong uwtable
define internal zeroext i16 @de_bssgp_pfc_flow_ctrl(ptr noundef %0, ptr noundef %1, ptr noundef %2, i32 noundef %3, i32 noundef %4, ptr noundef %5, i32 noundef %6) #1 {
  %8 = alloca i16, align 2
  %9 = alloca ptr, align 8
  %10 = alloca ptr, align 8
  %11 = alloca ptr, align 8
  %12 = alloca i32, align 4
  %13 = alloca i32, align 4
  %14 = alloca ptr, align 8
  %15 = alloca i32, align 4
  %16 = alloca ptr, align 8
  %17 = alloca i32, align 4
  %18 = alloca i8, align 1
  %19 = alloca i8, align 1
  %20 = alloca i8, align 1
  %21 = alloca i8, align 1
  %22 = alloca i32, align 4
  store ptr %0, ptr %9, align 8
  store ptr %1, ptr %10, align 8
  store ptr %2, ptr %11, align 8
  store i32 %3, ptr %12, align 4
  store i32 %4, ptr %13, align 4
  store ptr %5, ptr %14, align 8
  store i32 %6, ptr %15, align 4
  call void @llvm.lifetime.start.p0(i64 8, ptr %16) #4
  call void @llvm.lifetime.start.p0(i64 4, ptr %17) #4
  call void @llvm.lifetime.start.p0(i64 1, ptr %18) #4
  call void @llvm.lifetime.start.p0(i64 1, ptr %19) #4
  call void @llvm.lifetime.start.p0(i64 1, ptr %20) #4
  call void @llvm.lifetime.start.p0(i64 1, ptr %21) #4
  %23 = load i32, ptr %12, align 4
  store i32 %23, ptr %17, align 4
  %24 = load ptr, ptr %9, align 8
  %25 = load i32, ptr %17, align 4
  %26 = call zeroext i8 @tvb_get_uint8(ptr noundef %24, i32 noundef %25)
  store i8 %26, ptr %18, align 1
  %27 = load i8, ptr %18, align 1
  %28 = zext i8 %27 to i32
  %29 = icmp slt i32 %28, 12
  br i1 %29, label %30, label %38

30:                                               ; preds = %7
  %31 = load ptr, ptr %10, align 8
  %32 = load i32, ptr @hf_bssgp_num_pfc, align 4
  %33 = load ptr, ptr %9, align 8
  %34 = load i32, ptr %17, align 4
  %35 = load i8, ptr %18, align 1
  %36 = zext i8 %35 to i32
  %37 = call ptr @proto_tree_add_uint(ptr noundef %31, i32 noundef %32, ptr noundef %33, i32 noundef %34, i32 noundef 1, i32 noundef %36)
  br label %50

38:                                               ; preds = %7
  %39 = load ptr, ptr %10, align 8
  %40 = load i32, ptr @hf_bssgp_num_pfc, align 4
  %41 = load ptr, ptr %9, align 8
  %42 = load i32, ptr %17, align 4
  %43 = load i8, ptr %18, align 1
  %44 = zext i8 %43 to i32
  %45 = call ptr (ptr, i32, ptr, i32, i32, i32, ptr, ...) @proto_tree_add_uint_format_value(ptr noundef %39, i32 noundef %40, ptr noundef %41, i32 noundef %42, i32 noundef 1, i32 noundef %44, ptr noundef @.str.2)
  %46 = load i32, ptr %17, align 4
  %47 = load i32, ptr %12, align 4
  %48 = sub i32 %46, %47
  %49 = trunc i32 %48 to i16
  store i16 %49, ptr %8, align 2
  store i32 1, ptr %22, align 4
  br label %129

50:                                               ; preds = %30
  %51 = load i32, ptr %17, align 4
  %52 = add i32 %51, 1
  store i32 %52, ptr %17, align 4
  %53 = load i8, ptr %18, align 1
  %54 = zext i8 %53 to i32
  %55 = icmp eq i32 %54, 0
  br i1 %55, label %56, label %61

56:                                               ; preds = %50
  %57 = load i32, ptr %17, align 4
  %58 = load i32, ptr %12, align 4
  %59 = sub i32 %57, %58
  %60 = trunc i32 %59 to i16
  store i16 %60, ptr %8, align 2
  store i32 1, ptr %22, align 4
  br label %129

61:                                               ; preds = %50
  %62 = load i32, ptr %13, align 4
  %63 = sub i32 %62, 1
  %64 = load i8, ptr %18, align 1
  %65 = zext i8 %64 to i32
  %66 = udiv i32 %63, %65
  %67 = trunc i32 %66 to i8
  store i8 %67, ptr %20, align 1
  %68 = load i8, ptr %20, align 1
  %69 = zext i8 %68 to i32
  %70 = icmp eq i32 %69, 6
  %71 = zext i1 %70 to i8
  store i8 %71, ptr %21, align 1
  store i8 0, ptr %19, align 1
  br label %72

72:                                               ; preds = %121, %61
  %73 = load i8, ptr %19, align 1
  %74 = zext i8 %73 to i32
  %75 = load i8, ptr %18, align 1
  %76 = zext i8 %75 to i32
  %77 = icmp slt i32 %74, %76
  br i1 %77, label %78, label %124

78:                                               ; preds = %72
  %79 = load ptr, ptr %10, align 8
  %80 = load ptr, ptr %9, align 8
  %81 = load i32, ptr %17, align 4
  %82 = load i8, ptr %20, align 1
  %83 = zext i8 %82 to i32
  %84 = load i32, ptr @ett_bssgp_pfc_flow_control_parameters_pfc, align 4
  %85 = load i8, ptr %19, align 1
  %86 = zext i8 %85 to i32
  %87 = add i32 %86, 1
  %88 = call ptr (ptr, ptr, i32, i32, i32, ptr, ptr, ...) @proto_tree_add_subtree_format(ptr noundef %79, ptr noundef %80, i32 noundef %81, i32 noundef %83, i32 noundef %84, ptr noundef null, ptr noundef @.str.3, i32 noundef %87)
  store ptr %88, ptr %16, align 8
  %89 = load ptr, ptr %9, align 8
  %90 = load ptr, ptr %16, align 8
  %91 = load ptr, ptr %11, align 8
  %92 = load i32, ptr %17, align 4
  %93 = call zeroext i16 @de_sm_pflow_id(ptr noundef %89, ptr noundef %90, ptr noundef %91, i32 noundef %92, i32 noundef 1, ptr noundef null, i32 noundef 0)
  %94 = load i32, ptr %17, align 4
  %95 = add i32 %94, 1
  store i32 %95, ptr %17, align 4
  %96 = load ptr, ptr %10, align 8
  %97 = load i32, ptr @hf_bssgp_bmax_pfc, align 4
  %98 = load ptr, ptr %9, align 8
  %99 = load i32, ptr %17, align 4
  %100 = call ptr @proto_tree_add_item(ptr noundef %96, i32 noundef %97, ptr noundef %98, i32 noundef %99, i32 noundef 2, i32 noundef 0)
  %101 = load i32, ptr %17, align 4
  %102 = add i32 %101, 2
  store i32 %102, ptr %17, align 4
  %103 = load ptr, ptr %10, align 8
  %104 = load i32, ptr @hf_bssgp_r_pfc, align 4
  %105 = load ptr, ptr %9, align 8
  %106 = load i32, ptr %17, align 4
  %107 = call ptr @proto_tree_add_item(ptr noundef %103, i32 noundef %104, ptr noundef %105, i32 noundef %106, i32 noundef 2, i32 noundef 0)
  %108 = load i32, ptr %17, align 4
  %109 = add i32 %108, 2
  store i32 %109, ptr %17, align 4
  %110 = load i8, ptr %21, align 1, !range !10, !noundef !11
  %111 = trunc i8 %110 to i1
  br i1 %111, label %112, label %120

112:                                              ; preds = %78
  %113 = load ptr, ptr %10, align 8
  %114 = load i32, ptr @hf_bssgp_b_pfc, align 4
  %115 = load ptr, ptr %9, align 8
  %116 = load i32, ptr %17, align 4
  %117 = call ptr @proto_tree_add_item(ptr noundef %113, i32 noundef %114, ptr noundef %115, i32 noundef %116, i32 noundef 1, i32 noundef 0)
  %118 = load i32, ptr %17, align 4
  %119 = add i32 %118, 1
  store i32 %119, ptr %17, align 4
  br label %120

120:                                              ; preds = %112, %78
  br label %121

121:                                              ; preds = %120
  %122 = load i8, ptr %19, align 1
  %123 = add i8 %122, 1
  store i8 %123, ptr %19, align 1
  br label %72, !llvm.loop !12

124:                                              ; preds = %72
  %125 = load i32, ptr %17, align 4
  %126 = load i32, ptr %12, align 4
  %127 = sub i32 %125, %126
  %128 = trunc i32 %127 to i16
  store i16 %128, ptr %8, align 2
  store i32 1, ptr %22, align 4
  br label %129

129:                                              ; preds = %124, %56, %38
  call void @llvm.lifetime.end.p0(i64 1, ptr %21) #4
  call void @llvm.lifetime.end.p0(i64 1, ptr %20) #4
  call void @llvm.lifetime.end.p0(i64 1, ptr %19) #4
  call void @llvm.lifetime.end.p0(i64 1, ptr %18) #4
  call void @llvm.lifetime.end.p0(i64 4, ptr %17) #4
  call void @llvm.lifetime.end.p0(i64 8, ptr %16) #4
  %130 = load i16, ptr %8, align 2
  ret i16 %130
}