; Function Attrs: null_pointer_is_valid sspstrong uwtable
define internal noundef zeroext i16 @de_bssgp_pfc_flow_ctrl(ptr noundef %0, ptr noundef %1, ptr noundef %2, i32 noundef %3, i32 noundef %4, ptr readnone captures(none) %5, i32 %6) #1 {
  %8 = tail call zeroext i8 @tvb_get_uint8(ptr noundef %0, i32 noundef %3)
  %.fr = freeze i8 %8
  %9 = zext i8 %.fr to i32
  %10 = icmp ult i8 %.fr, 12
  %11 = load i32, ptr @hf_bssgp_num_pfc, align 4
  br i1 %10, label %12, label %15

12:                                               ; preds = %7
  %13 = tail call ptr @proto_tree_add_uint(ptr noundef %1, i32 noundef %11, ptr noundef %0, i32 noundef %3, i32 noundef 1, i32 noundef %9)
  %14 = icmp eq i8 %.fr, 0
  br i1 %14, label %50, label %17

15:                                               ; preds = %7
  %16 = tail call ptr (ptr, i32, ptr, i32, i32, i32, ptr, ...) @proto_tree_add_uint_format_value(ptr noundef %1, i32 noundef %11, ptr noundef %0, i32 noundef %3, i32 noundef 1, i32 noundef %9, ptr noundef nonnull @.str.2)
  br label %50

17:                                               ; preds = %12
  %18 = add i32 %3, 1
  %19 = add i32 %4, -1
  %20 = udiv i32 %19, %9
  %21 = and i32 %20, 255
  %22 = icmp eq i32 %21, 6
  br i1 %22, label %.split.us, label %.split

.split.us:                                        ; preds = %17, %.split.us
  %indvars.iv62 = phi i32 [ %24, %.split.us ], [ 0, %17 ]
  %.04954.us = phi i32 [ %36, %.split.us ], [ %18, %17 ]
  %23 = load i32, ptr @ett_bssgp_pfc_flow_control_parameters_pfc, align 4
  %24 = add nuw nsw i32 %indvars.iv62, 1
  %25 = tail call ptr (ptr, ptr, i32, i32, i32, ptr, ptr, ...) @proto_tree_add_subtree_format(ptr noundef %1, ptr noundef %0, i32 noundef %.04954.us, i32 noundef 6, i32 noundef %23, ptr noundef null, ptr noundef nonnull @.str.3, i32 noundef %24)
  %26 = tail call zeroext i16 @de_sm_pflow_id(ptr noundef %0, ptr noundef %25, ptr noundef %2, i32 noundef %.04954.us, i32 noundef 1, ptr noundef null, i32 noundef 0)
  %27 = add i32 %.04954.us, 1
  %28 = load i32, ptr @hf_bssgp_bmax_pfc, align 4
  %29 = tail call ptr @proto_tree_add_item(ptr noundef %1, i32 noundef %28, ptr noundef %0, i32 noundef %27, i32 noundef 2, i32 noundef 0)
  %30 = add i32 %.04954.us, 3
  %31 = load i32, ptr @hf_bssgp_r_pfc, align 4
  %32 = tail call ptr @proto_tree_add_item(ptr noundef %1, i32 noundef %31, ptr noundef %0, i32 noundef %30, i32 noundef 2, i32 noundef 0)
  %33 = add i32 %.04954.us, 5
  %34 = load i32, ptr @hf_bssgp_b_pfc, align 4
  %35 = tail call ptr @proto_tree_add_item(ptr noundef %1, i32 noundef %34, ptr noundef %0, i32 noundef %33, i32 noundef 1, i32 noundef 0)
  %36 = add i32 %.04954.us, 6
  %exitcond66.not = icmp eq i32 %24, %9
  br i1 %exitcond66.not, label %.split56.us, label %.split.us, !llvm.loop !10

.split:                                           ; preds = %17, %.split
  %indvars.iv = phi i32 [ %38, %.split ], [ 0, %17 ]
  %.04954 = phi i32 [ %47, %.split ], [ %18, %17 ]
  %37 = load i32, ptr @ett_bssgp_pfc_flow_control_parameters_pfc, align 4
  %38 = add nuw nsw i32 %indvars.iv, 1
  %39 = tail call ptr (ptr, ptr, i32, i32, i32, ptr, ptr, ...) @proto_tree_add_subtree_format(ptr noundef %1, ptr noundef %0, i32 noundef %.04954, i32 noundef %21, i32 noundef %37, ptr noundef null, ptr noundef nonnull @.str.3, i32 noundef %38)
  %40 = tail call zeroext i16 @de_sm_pflow_id(ptr noundef %0, ptr noundef %39, ptr noundef %2, i32 noundef %.04954, i32 noundef 1, ptr noundef null, i32 noundef 0)
  %41 = add i32 %.04954, 1
  %42 = load i32, ptr @hf_bssgp_bmax_pfc, align 4
  %43 = tail call ptr @proto_tree_add_item(ptr noundef %1, i32 noundef %42, ptr noundef %0, i32 noundef %41, i32 noundef 2, i32 noundef 0)
  %44 = add i32 %.04954, 3
  %45 = load i32, ptr @hf_bssgp_r_pfc, align 4
  %46 = tail call ptr @proto_tree_add_item(ptr noundef %1, i32 noundef %45, ptr noundef %0, i32 noundef %44, i32 noundef 2, i32 noundef 0)
  %47 = add i32 %.04954, 5
  %exitcond.not = icmp eq i32 %38, %9
  br i1 %exitcond.not, label %.split56.us, label %.split, !llvm.loop !10

.split56.us:                                      ; preds = %.split, %.split.us
  %.us-phi = phi i32 [ %36, %.split.us ], [ %47, %.split ]
  %48 = sub i32 %.us-phi, %3
  %49 = trunc i32 %48 to i16
  br label %50

50:                                               ; preds = %12, %.split56.us, %15
  %.0 = phi i16 [ %49, %.split56.us ], [ 0, %15 ], [ 1, %12 ]
  ret i16 %.0
}